target datalayout = "e-m:e-p270:32:32-p271:32:32-p272:64:64-i64:64-i128:128-f80:128-n8:16:32:64-S128"
target triple = "x86_64-pc-linux-gnu"

%struct.ldmParams_t = type { i32, i32, i32, i32, i32, i32 }

; Function Attrs: nounwind uwtable
define i64 @ZSTD_ldm_getMaxNbSeq(ptr noundef byval(%struct.ldmParams_t) align 8 %0, i64 noundef %1) #0 {
  %3 = alloca i64, align 8
  store i64 %1, ptr %3, align 8, !tbaa !17
  %4 = getelementptr inbounds nuw %struct.ldmParams_t, ptr %0, i32 0, i32 0
  %5 = load i32, ptr %4, align 8, !tbaa !19
  %6 = icmp eq i32 %5, 1
  br i1 %6, label %7, label %13

7:                                                ; preds = %2
  %8 = load i64, ptr %3, align 8, !tbaa !17
  %9 = getelementptr inbounds nuw %struct.ldmParams_t, ptr %0, i32 0, i32 3
  %10 = load i32, ptr %9, align 4, !tbaa !15
  %11 = zext i32 %10 to i64
  %12 = udiv i64 %8, %11
  br label %14

13:                                               ; preds = %2
  br label %14

14:                                               ; preds = %13, %7
  %15 = phi i64 [ %12, %7 ], [ 0, %13 ]
  ret i64 %15
}